; Function Attrs: mustprogress nofree norecurse nosync nounwind willreturn memory(argmem: readwrite) uwtable
define dso_local void @_ZN6spdlog7details14log_msg_buffer19update_string_viewsEv(ptr noundef nonnull align 8 captures(none) dereferenceable(384) initializes((0, 8), (80, 88)) %0) local_unnamed_addr #15 align 2 {
  %2 = getelementptr inbounds nuw i8, ptr %0, i64 96
  %3 = load ptr, ptr %2, align 8, !tbaa !20
  %4 = getelementptr inbounds nuw i8, ptr %0, i64 8
  %5 = load i64, ptr %4, align 8, !tbaa !56
  store ptr %3, ptr %0, align 8, !tbaa !4
  %6 = getelementptr inbounds nuw i8, ptr %3, i64 %5
  %7 = getelementptr inbounds nuw i8, ptr %0, i64 80
  store ptr %6, ptr %7, align 8, !tbaa !4
  ret void
}